; Function Attrs: nounwind uwtable
define internal ptr @hpa_alloc(ptr noundef %0, ptr noundef %1, i64 noundef %2, i64 noundef %3, i1 noundef zeroext %4, i1 zeroext %5, i1 noundef zeroext %6, ptr noundef writeonly captures(none) %7) #1 {
tsdn_witness_tsdp_get.exit:
  %8 = alloca %struct.edata_list_active_t, align 8
  %9 = icmp ugt i64 %3, 4096
  %brmerge = or i1 %9, %4
  br i1 %brmerge, label %12, label %10

10:                                               ; preds = %tsdn_witness_tsdp_get.exit
  call void @llvm.lifetime.start.p0(i64 8, ptr nonnull %8) #8
  store ptr null, ptr %8, align 8, !tbaa !52
  %11 = call i64 @hpa_alloc_batch(ptr noundef %0, ptr noundef %1, i64 noundef %2, i64 noundef 1, ptr noundef nonnull %8, i1 noundef zeroext %6, ptr noundef %7)
  %.val = load ptr, ptr %8, align 8, !tbaa !52
  call void @llvm.lifetime.end.p0(i64 8, ptr nonnull %8) #8
  br label %12

12:                                               ; preds = %tsdn_witness_tsdp_get.exit, %10
  %.0 = phi ptr [ %.val, %10 ], [ null, %tsdn_witness_tsdp_get.exit ]
  ret ptr %.0
}